target datalayout = "e-m:e-p270:32:32-p271:32:32-p272:64:64-i64:64-i128:128-f80:128-n8:16:32:64-S128"
target triple = "x86_64-unknown-linux-gnu"

%class.anon.162 = type { i8 }

@_ZN4pbrtL16regularizedBSDFsE = internal thread_local global i64 0, align 8
@_ZN4pbrtL10totalBSDFsE = internal thread_local global i64 0, align 8
@.str.144 = private unnamed_addr constant [29 x i8] c"Integrator/Regularized BSDFs\00", align 1

; Function Attrs: mustprogress uwtable
define internal void @"_ZNK4pbrt4$_30clERNS_16StatsAccumulatorE"(ptr noundef nonnull align 1 dereferenceable(1) %this, ptr noundef nonnull align 8 dereferenceable(8) %accum) #1 align 2 {
entry:
  %this.addr = alloca ptr, align 8
  %accum.addr = alloca ptr, align 8
  store ptr %this, ptr %this.addr, align 8
  store ptr %accum, ptr %accum.addr, align 8
  %0 = load ptr, ptr %accum.addr, align 8
  %1 = call align 8 ptr @llvm.threadlocal.address.p0(ptr align 8 @_ZN4pbrtL16regularizedBSDFsE)
  %2 = load i64, ptr %1, align 8
  %3 = call align 8 ptr @llvm.threadlocal.address.p0(ptr align 8 @_ZN4pbrtL10totalBSDFsE)
  %4 = load i64, ptr %3, align 8
  call void @_ZN4pbrt16StatsAccumulator16ReportPercentageEPKcll(ptr noundef nonnull align 8 dereferenceable(8) %0, ptr noundef @.str.144, i64 noundef %2, i64 noundef %4)
  %5 = call align 8 ptr @llvm.threadlocal.address.p0(ptr align 8 @_ZN4pbrtL16regularizedBSDFsE)
  store i64 0, ptr %5, align 8
  %6 = call align 8 ptr @llvm.threadlocal.address.p0(ptr align 8 @_ZN4pbrtL10totalBSDFsE)
  store i64 0, ptr %6, align 8
  ret void
}

; Function Attrs: mustprogress uwtable
define internal void @"_ZN4pbrt4$_308__invokeERNS_16StatsAccumulatorE"(ptr noundef nonnull align 8 dereferenceable(8) %accum) #1 align 2 {
entry:
  %accum.addr = alloca ptr, align 8
  %unused.capture = alloca %class.anon.162, align 1
  store ptr %accum, ptr %accum.addr, align 8
  %0 = load ptr, ptr %accum.addr, align 8
  call void @"_ZNK4pbrt4$_30clERNS_16StatsAccumulatorE"(ptr noundef nonnull align 1 dereferenceable(1) %unused.capture, ptr noundef nonnull align 8 dereferenceable(8) %0)
  ret void
}